target datalayout = "e-m:e-p270:32:32-p271:32:32-p272:64:64-i64:64-i128:128-f80:128-n8:16:32:64-S128"
target triple = "x86_64-pc-linux-gnu"

%class.QString = type { %struct.QArrayDataPointer }
%struct.QArrayDataPointer = type { ptr, ptr, i64 }
%class.QObject = type { ptr, %class.QScopedPointer }
%class.QScopedPointer = type { ptr }
%class.QDropEvent = type { %class.QEvent, %class.QPointF, %class.QFlags.0, %class.QFlags.1, %class.QFlags.2, i32, i32, ptr }
%class.QEvent = type { ptr, i16, i8, i8, i8, i8, i16 }
%class.QPointF = type { double, double }
%class.QFlags.0 = type { i32 }
%class.QFlags.1 = type { i32 }
%class.QFlags.2 = type { i32 }
%class.QObjectData = type { ptr, ptr, ptr, %class.QList.38, i32, i32, ptr, %class.QBindingStorage }
%class.QList.38 = type { %struct.QArrayDataPointer.41 }
%struct.QArrayDataPointer.41 = type { ptr, ptr, i64 }
%class.QBindingStorage = type { ptr, ptr }

@_ZN17WiresharkMimeData21DisplayFilterMimeTypeE = external global %class.QString, align 8

; Function Attrs: mustprogress nounwind uwtable
define linkonce_odr void @_ZN6QEvent6acceptEv(ptr noundef nonnull align 8 dereferenceable(16) %0) #2 comdat align 2 {
  %2 = alloca ptr, align 8
  store ptr %0, ptr %2, align 8
  %3 = load ptr, ptr %2, align 8
  %4 = getelementptr inbounds %class.QEvent, ptr %3, i32 0, i32 4
  store i8 1, ptr %4, align 4
  ret void
}

; Function Attrs: mustprogress nounwind uwtable
define linkonce_odr noundef ptr @_ZNK14QScopedPointerI11QObjectData21QScopedPointerDeleterIS0_EEptEv(ptr noundef nonnull align 8 dereferenceable(8) %0) #2 comdat align 2 {
  %2 = alloca ptr, align 8
  store ptr %0, ptr %2, align 8
  %3 = load ptr, ptr %2, align 8
  %4 = getelementptr inbounds %class.QScopedPointer, ptr %3, i32 0, i32 0
  %5 = load ptr, ptr %4, align 8
  ret ptr %5
}

; Function Attrs: mustprogress uwtable
define linkonce_odr void @_ZN10QDropEvent20acceptProposedActionEv(ptr noundef nonnull align 8 dereferenceable(64) %0) #0 comdat align 2 {
  %2 = alloca ptr, align 8
  store ptr %0, ptr %2, align 8
  %3 = load ptr, ptr %2, align 8
  %4 = getelementptr inbounds %class.QDropEvent, ptr %3, i32 0, i32 6
  %5 = load i32, ptr %4, align 8
  %6 = getelementptr inbounds %class.QDropEvent, ptr %3, i32 0, i32 5
  store i32 %5, ptr %6, align 4
  call void @_ZN6QEvent6acceptEv(ptr noundef nonnull align 8 dereferenceable(16) %3)
  ret void
}

; Function Attrs: mustprogress uwtable
define linkonce_odr void @_ZN14QDragMoveEvent6acceptEv(ptr noundef nonnull align 8 dereferenceable(80) %0) #0 comdat align 2 {
  %2 = alloca ptr, align 8
  store ptr %0, ptr %2, align 8
  %3 = load ptr, ptr %2, align 8
  call void @_ZN6QEvent6acceptEv(ptr noundef nonnull align 8 dereferenceable(16) %3)
  ret void
}

; Function Attrs: mustprogress nounwind uwtable
define linkonce_odr noundef ptr @_ZNK7QObject6parentEv(ptr noundef nonnull align 8 dereferenceable(16) %0) #2 comdat align 2 {
  %2 = alloca ptr, align 8
  store ptr %0, ptr %2, align 8
  %3 = load ptr, ptr %2, align 8
  %4 = getelementptr inbounds %class.QObject, ptr %3, i32 0, i32 1
  %5 = call noundef ptr @_ZNK14QScopedPointerI11QObjectData21QScopedPointerDeleterIS0_EEptEv(ptr noundef nonnull align 8 dereferenceable(8) %4) #9
  %6 = getelementptr inbounds %class.QObjectData, ptr %5, i32 0, i32 2
  %7 = load ptr, ptr %6, align 8
  ret ptr %7
}

; Function Attrs: mustprogress nounwind uwtable
define linkonce_odr noundef ptr @_ZNK10QDropEvent8mimeDataEv(ptr noundef nonnull align 8 dereferenceable(64) %0) #2 comdat align 2 {
  %2 = alloca ptr, align 8
  store ptr %0, ptr %2, align 8
  %3 = load ptr, ptr %2, align 8
  %4 = getelementptr inbounds %class.QDropEvent, ptr %3, i32 0, i32 7
  %5 = load ptr, ptr %4, align 8
  ret ptr %5
}

; Function Attrs: mustprogress uwtable
define void @_ZN16PacketListHeader14dragEnterEventEP15QDragEnterEvent(ptr noundef nonnull align 8 dereferenceable(44) %0, ptr noundef %1) unnamed_addr #0 align 2 {
  %3 = alloca ptr, align 8
  %4 = alloca ptr, align 8
  store ptr %0, ptr %3, align 8
  store ptr %1, ptr %4, align 8
  %5 = load ptr, ptr %3, align 8
  %6 = load ptr, ptr %4, align 8
  %7 = icmp ne ptr %6, null
  br i1 %7, label %8, label %12

8:                                                ; preds = %2
  %9 = load ptr, ptr %4, align 8
  %10 = call noundef ptr @_ZNK10QDropEvent8mimeDataEv(ptr noundef nonnull align 8 dereferenceable(64) %9)
  %11 = icmp ne ptr %10, null
  br i1 %11, label %13, label %12

12:                                               ; preds = %8, %2
  br label %37

13:                                               ; preds = %8
  %14 = load ptr, ptr %4, align 8
  %15 = call noundef ptr @_ZNK10QDropEvent8mimeDataEv(ptr noundef nonnull align 8 dereferenceable(64) %14)
  %16 = load ptr, ptr %15, align 8
  %17 = getelementptr inbounds ptr, ptr %16, i64 12
  %18 = load ptr, ptr %17, align 8
  %19 = call noundef zeroext i1 %18(ptr noundef nonnull align 8 dereferenceable(16) %15, ptr noundef nonnull align 8 dereferenceable(24) @_ZN17WiresharkMimeData21DisplayFilterMimeTypeE)
  br i1 %19, label %20, label %35

20:                                               ; preds = %13
  %21 = load ptr, ptr %4, align 8
  %22 = call noundef ptr @_ZNK10QDropEvent6sourceEv(ptr noundef nonnull align 8 dereferenceable(64) %21)
  %23 = call noundef ptr @_ZNK7QObject6parentEv(ptr noundef nonnull align 8 dereferenceable(16) %5)
  %24 = icmp ne ptr %22, %23
  br i1 %24, label %25, label %35

25:                                               ; preds = %20
  %26 = load ptr, ptr %4, align 8
  %27 = call noundef ptr @_ZNK10QDropEvent6sourceEv(ptr noundef nonnull align 8 dereferenceable(64) %26)
  %28 = icmp ne ptr %27, %5
  br i1 %28, label %29, label %32

29:                                               ; preds = %25
  %30 = load ptr, ptr %4, align 8
  call void @_ZN10QDropEvent13setDropActionEN2Qt10DropActionE(ptr noundef nonnull align 8 dereferenceable(64) %30, i32 noundef 1)
  %31 = load ptr, ptr %4, align 8
  call void @_ZN14QDragMoveEvent6acceptEv(ptr noundef nonnull align 8 dereferenceable(80) %31)
  br label %34

32:                                               ; preds = %25
  %33 = load ptr, ptr %4, align 8
  call void @_ZN10QDropEvent20acceptProposedActionEv(ptr noundef nonnull align 8 dereferenceable(64) %33)
  br label %34

34:                                               ; preds = %32, %29
  br label %37

35:                                               ; preds = %20, %13
  %36 = load ptr, ptr %4, align 8
  call void @_ZN17QAbstractItemView14dragEnterEventEP15QDragEnterEvent(ptr noundef nonnull align 8 dereferenceable(40) %5, ptr noundef %36)
  br label %37

37:                                               ; preds = %35, %34, %12
  ret void
}