; Function Attrs: mustprogress uwtable
define void @_ZN16PacketListHeader14dragEnterEventEP15QDragEnterEvent(ptr noundef nonnull align 8 dereferenceable(44) %0, ptr noundef %1) unnamed_addr #0 align 2 {
  %.not = icmp eq ptr %1, null
  br i1 %.not, label %27, label %3

3:                                                ; preds = %2
  %4 = getelementptr inbounds i8, ptr %1, i64 56
  %5 = load ptr, ptr %4, align 8
  %.not10 = icmp eq ptr %5, null
  br i1 %.not10, label %27, label %6

6:                                                ; preds = %3
  %7 = load ptr, ptr %5, align 8
  %8 = getelementptr inbounds i8, ptr %7, i64 96
  %9 = load ptr, ptr %8, align 8
  %10 = tail call noundef zeroext i1 %9(ptr noundef nonnull align 8 dereferenceable(16) %5, ptr noundef nonnull align 8 dereferenceable(24) @_ZN17WiresharkMimeData21DisplayFilterMimeTypeE)
  br i1 %10, label %11, label %26

11:                                               ; preds = %6
  %12 = tail call noundef ptr @_ZNK10QDropEvent6sourceEv(ptr noundef nonnull align 8 dereferenceable(64) %1)
  %13 = getelementptr inbounds i8, ptr %0, i64 8
  %14 = load ptr, ptr %13, align 8
  %15 = getelementptr inbounds i8, ptr %14, i64 16
  %16 = load ptr, ptr %15, align 8
  %.not11 = icmp eq ptr %12, %16
  br i1 %.not11, label %26, label %17

17:                                               ; preds = %11
  %18 = tail call noundef ptr @_ZNK10QDropEvent6sourceEv(ptr noundef nonnull align 8 dereferenceable(64) %1)
  %.not12 = icmp eq ptr %18, %0
  br i1 %.not12, label %21, label %19

19:                                               ; preds = %17
  tail call void @_ZN10QDropEvent13setDropActionEN2Qt10DropActionE(ptr noundef nonnull align 8 dereferenceable(64) %1, i32 noundef 1)
  %20 = getelementptr inbounds i8, ptr %1, i64 12
  store i8 1, ptr %20, align 4
  br label %27

21:                                               ; preds = %17
  %22 = getelementptr inbounds i8, ptr %1, i64 48
  %23 = load i32, ptr %22, align 8
  %24 = getelementptr inbounds i8, ptr %1, i64 44
  store i32 %23, ptr %24, align 4
  %25 = getelementptr inbounds i8, ptr %1, i64 12
  store i8 1, ptr %25, align 4
  br label %27

26:                                               ; preds = %11, %6
  tail call void @_ZN17QAbstractItemView14dragEnterEventEP15QDragEnterEvent(ptr noundef nonnull align 8 dereferenceable(40) %0, ptr noundef nonnull %1)
  br label %27

27:                                               ; preds = %19, %21, %2, %3, %26
  ret void
}